; Function Attrs: mustprogress uwtable
define hidden noundef ptr @_ZN7datalog21sieve_relation_plugin8mk_emptyERKNS_13relation_baseE(ptr noundef nonnull align 8 dereferenceable(104) %0, ptr noundef nonnull align 8 dereferenceable(28) %1) unnamed_addr #3 align 2 {
  %3 = getelementptr inbounds nuw i8, ptr %1, i64 16
  %4 = getelementptr inbounds nuw i8, ptr %1, i64 24
  %5 = load i32, ptr %4, align 8, !tbaa !21
  %6 = load ptr, ptr %0, align 8, !tbaa !3
  %7 = getelementptr inbounds nuw i8, ptr %6, i64 48
  %8 = load ptr, ptr %7, align 8
  %9 = tail call noundef ptr %8(ptr noundef nonnull align 8 dereferenceable(104) %0, ptr noundef nonnull align 8 dereferenceable(8) %3, i32 noundef %5)
  ret ptr %9
}